target datalayout = "e-m:e-p270:32:32-p271:32:32-p272:64:64-i64:64-i128:128-f80:128-n8:16:32:64-S128"
target triple = "x86_64-unknown-linux-gnu"

%class.model_evaluator = type { ptr }
%class.rewriter_tpl = type { %class.rewriter_core, ptr, i32, %class.ptr_vector.1, %class.var_shifter, %class.inv_var_shifter, %class.obj_ref, %class.obj_ref.10, %class.obj_ref.10, %class.svector.11 }
%class.rewriter_core = type { ptr, ptr, i8, i8, %class.ptr_vector, ptr, %class.svector, %class.ref_vector, %class.ptr_vector, ptr, %class.ref_vector.3, %class.obj_hashtable, ptr, i32, %class.svector.8 }
%class.svector = type { %class.vector.0 }
%class.vector.0 = type { ptr }
%class.ref_vector = type { %class.ref_vector_core }
%class.ref_vector_core = type { %class.ref_manager_wrapper, %class.ptr_vector.1 }
%class.ref_manager_wrapper = type { ptr }
%class.ptr_vector = type { %class.vector }
%class.vector = type { ptr }
%class.ref_vector.3 = type { %class.ref_vector_core.4 }
%class.ref_vector_core.4 = type { %class.ref_manager_wrapper.5, %class.ptr_vector.6 }
%class.ref_manager_wrapper.5 = type { ptr }
%class.ptr_vector.6 = type { %class.vector.7 }
%class.vector.7 = type { ptr }
%class.obj_hashtable = type { %class.core_hashtable.base, [4 x i8] }
%class.core_hashtable.base = type <{ ptr, i32, i32, i32 }>
%class.svector.8 = type { %class.vector.9 }
%class.vector.9 = type { ptr }
%class.ptr_vector.1 = type { %class.vector.2 }
%class.vector.2 = type { ptr }
%class.var_shifter = type <{ %class.var_shifter_core, i32, i32, i32, [4 x i8] }>
%class.var_shifter_core = type { %class.rewriter_core }
%class.inv_var_shifter = type <{ %class.var_shifter_core, i32, [4 x i8] }>
%class.obj_ref = type { ptr, ptr }
%class.obj_ref.10 = type { ptr, ptr }
%class.svector.11 = type { %class.vector.12 }
%class.vector.12 = type { ptr }
%"struct.mev::evaluator_cfg" = type { ptr, ptr, %class.params_ref, %class.bool_rewriter, %class.arith_rewriter, %class.bv_rewriter, %class.array_rewriter, %class.datatype_rewriter, %class.pb_rewriter, %class.fpa_rewriter, %class.seq_rewriter, %class.recfun_rewriter, %class.array_util, %class.arith_util, %class.fpa_util, %"class.datatype::util", i64, i32, i8, i8, i8, i8, %class.obj_map.62, %class.ref_vector }
%class.params_ref = type { ptr }
%class.bool_rewriter = type { ptr, i8, i8, i8, i8, i8, i8, i32, i8, i32, i32, i8, %class.ptr_vector.1, %class.ptr_vector.1, %class.svector.11, %class.svector.11 }
%class.arith_rewriter = type { %class.poly_rewriter.base, i8, i8, i8, i8, i8, i8, i8, i8, i32 }
%class.poly_rewriter.base = type <{ %class.arith_rewriter_core.base, [5 x i8], ptr, %class.obj_map, i8, i8, [2 x i8], i32, i8, i8, i8, i8 }>
%class.arith_rewriter_core.base = type <{ ptr, %class.arith_util, %class.scoped_ptr, i8, i8, i8 }>
%class.scoped_ptr = type { ptr }
%class.obj_map = type { %class.core_hashtable.13 }
%class.core_hashtable.13 = type <{ ptr, i32, i32, i32, [4 x i8] }>
%class.bv_rewriter = type <{ %class.poly_rewriter.base.16, [4 x i8], %class.mk_extract_proc, %class.arith_util, i8, i8, i8, i8, i8, i8, i8, i8, i8, i8, i8, i8, i8, [3 x i8] }>
%class.poly_rewriter.base.16 = type <{ %class.bv_rewriter_core, ptr, %class.obj_map, i8, i8, [2 x i8], i32, i8, i8, i8, i8 }>
%class.bv_rewriter_core = type { ptr, %class.bv_util, %class.obj_ref }
%class.bv_util = type { %class.bv_recognizers, ptr, ptr }
%class.bv_recognizers = type { i32 }
%class.mk_extract_proc = type { ptr, i32, i32, ptr, ptr }
%class.array_rewriter = type <{ %class.array_util, i8, i8, i8, i8, i8, i8, [2 x i8] }>
%class.datatype_rewriter = type { %"class.datatype::util" }
%class.pb_rewriter = type { %class.pb_util, %class.vector.54, %class.ptr_vector.1 }
%class.pb_util = type { ptr, i32, %class.vector.54, %class.vector.55, %class.rational }
%class.vector.55 = type { ptr }
%class.rational = type { %class.mpq }
%class.mpq = type { %class.mpz, %class.mpz }
%class.mpz = type { i32, i8, ptr }
%class.vector.54 = type { ptr }
%class.fpa_rewriter = type <{ %class.fpa_util, ptr, i8, [7 x i8] }>
%class.seq_rewriter = type <{ %class.seq_util, %class.arith_util, %class.bool_rewriter, %class.re2automaton, %"class.seq_rewriter::op_cache", %class.ref_vector, %class.ref_vector, %class.ref_vector, i8, [7 x i8] }>
%class.seq_util = type { ptr, ptr, ptr, i32, [4 x i8], %"class.seq_util::str", %"class.seq_util::rex" }
%"class.seq_util::str" = type <{ ptr, ptr, i32, [4 x i8] }>
%"class.seq_util::rex" = type { ptr, ptr, i32, %class.vector.56, %class.ref_vector, %"struct.seq_util::rex::info", %"struct.seq_util::rex::info" }
%class.vector.56 = type { ptr }
%"struct.seq_util::rex::info" = type { i32, i8, i32, i32 }
%class.re2automaton = type { ptr, %class.sym_expr_manager, %class.seq_util, %class.scoped_ptr.57, %class.scoped_ptr.58, %class.scoped_ptr.59 }
%class.sym_expr_manager = type { i8 }
%class.scoped_ptr.57 = type { ptr }
%class.scoped_ptr.58 = type { ptr }
%class.scoped_ptr.59 = type { ptr }
%"class.seq_rewriter::op_cache" = type { i32, %class.ref_vector, %class.hashtable }
%class.hashtable = type { %class.core_hashtable.base.61, [4 x i8] }
%class.core_hashtable.base.61 = type <{ ptr, i32, i32, i32 }>
%class.recfun_rewriter = type { ptr, %"class.recfun::util" }
%"class.recfun::util" = type { ptr, i32, ptr }
%class.array_util = type { %class.array_recognizers, ptr }
%class.array_recognizers = type { i32 }
%class.arith_util = type { ptr, ptr }
%class.fpa_util = type { ptr, ptr, i32, %class.arith_util, %class.bv_util }
%"class.datatype::util" = type { ptr, i32, ptr, %class.obj_map.17, %class.obj_map.22, %class.obj_map.27, %class.obj_map.32, %class.obj_map.32, %class.obj_map.32, %class.obj_map.37, %class.obj_map.37, %class.obj_map.37, %class.ref_vector.42, %class.ref_vector_core.47, %class.ptr_vector.50, i32, %class.ptr_vector.52 }
%class.obj_map.17 = type { %class.core_hashtable.18 }
%class.core_hashtable.18 = type <{ ptr, i32, i32, i32, [4 x i8] }>
%class.obj_map.22 = type { %class.core_hashtable.23 }
%class.core_hashtable.23 = type <{ ptr, i32, i32, i32, [4 x i8] }>
%class.obj_map.27 = type { %class.core_hashtable.28 }
%class.core_hashtable.28 = type <{ ptr, i32, i32, i32, [4 x i8] }>
%class.obj_map.32 = type { %class.core_hashtable.33 }
%class.core_hashtable.33 = type <{ ptr, i32, i32, i32, [4 x i8] }>
%class.obj_map.37 = type { %class.core_hashtable.38 }
%class.core_hashtable.38 = type <{ ptr, i32, i32, i32, [4 x i8] }>
%class.ref_vector.42 = type { %class.ref_vector_core.43 }
%class.ref_vector_core.43 = type { %class.ref_manager_wrapper.44, %class.ptr_vector.45 }
%class.ref_manager_wrapper.44 = type { ptr }
%class.ptr_vector.45 = type { %class.vector.46 }
%class.vector.46 = type { ptr }
%class.ref_vector_core.47 = type { %class.ptr_vector.48 }
%class.ptr_vector.48 = type { %class.vector.49 }
%class.vector.49 = type { ptr }
%class.ptr_vector.50 = type { %class.vector.51 }
%class.vector.51 = type { ptr }
%class.ptr_vector.52 = type { %class.vector.53 }
%class.vector.53 = type { ptr }
%class.obj_map.62 = type { %class.core_hashtable.63 }
%class.core_hashtable.63 = type <{ ptr, i32, i32, i32, [4 x i8] }>

; Function Attrs: mustprogress nounwind uwtable
define linkonce_odr hidden noundef nonnull align 8 dereferenceable(1800) ptr @_ZN12rewriter_tplIN3mev13evaluator_cfgEE3cfgEv(ptr noundef nonnull align 8 dereferenceable(536) %this) #5 comdat align 2 {
entry:
  %this.addr = alloca ptr, align 8
  store ptr %this, ptr %this.addr, align 8
  %this1 = load ptr, ptr %this.addr, align 8
  %m_cfg = getelementptr inbounds %class.rewriter_tpl, ptr %this1, i32 0, i32 1
  %0 = load ptr, ptr %m_cfg, align 8
  ret ptr %0
}

; Function Attrs: mustprogress uwtable
define hidden void @_ZN15model_evaluator27set_expand_array_equalitiesEb(ptr noundef nonnull align 8 dereferenceable(8) %this, i1 noundef zeroext %f) #4 align 2 {
entry:
  %this.addr = alloca ptr, align 8
  %f.addr = alloca i8, align 1
  store ptr %this, ptr %this.addr, align 8
  %frombool = zext i1 %f to i8
  store i8 %frombool, ptr %f.addr, align 1
  %this1 = load ptr, ptr %this.addr, align 8
  %0 = load i8, ptr %f.addr, align 1
  %tobool = trunc i8 %0 to i1
  %m_imp = getelementptr inbounds %class.model_evaluator, ptr %this1, i32 0, i32 0
  %1 = load ptr, ptr %m_imp, align 8
  %call = call noundef nonnull align 8 dereferenceable(1800) ptr @_ZN12rewriter_tplIN3mev13evaluator_cfgEE3cfgEv(ptr noundef nonnull align 8 dereferenceable(536) %1)
  %m_array_equalities = getelementptr inbounds %"struct.mev::evaluator_cfg", ptr %call, i32 0, i32 19
  %frombool2 = zext i1 %tobool to i8
  store i8 %frombool2, ptr %m_array_equalities, align 1
  ret void
}