; Function Attrs: mustprogress nofree norecurse nosync nounwind willreturn memory(readwrite, inaccessiblemem: none) uwtable
define hidden void @_ZN15model_evaluator27set_expand_array_equalitiesEb(ptr nocapture noundef nonnull readonly align 8 dereferenceable(8) %this, i1 noundef zeroext %f) local_unnamed_addr #7 align 2 {
entry:
  %frombool = zext i1 %f to i8
  %0 = load ptr, ptr %this, align 8
  %m_cfg.i = getelementptr inbounds i8, ptr %0, i64 144
  %1 = load ptr, ptr %m_cfg.i, align 8
  %m_array_equalities = getelementptr inbounds i8, ptr %1, i64 1757
  store i8 %frombool, ptr %m_array_equalities, align 1
  ret void
}